target datalayout = "e-m:e-p270:32:32-p271:32:32-p272:64:64-i64:64-i128:128-f80:128-n8:16:32:64-S128"
target triple = "x86_64-pc-linux-gnu"

%struct.MpegEncContext = type { ptr, i32, i32, i32, [12 x i32], i32, %struct.ScanTable, %struct.ScanTable, [64 x i8], [64 x i8], ptr, ptr, i32, i32, i32, i32, i32, i32, i32, i32, i32, i32, i32, i32, i32, i32, i32, i32, i32, i32, i32, i32, i64, i64, ptr, %struct.BufferPoolContext, i32, i32, %union.anon, i32, %struct.MPVWorkPicture, %struct.MPVWorkPicture, %struct.MPVWorkPicture, i32, [3 x i32], ptr, [3 x ptr], ptr, ptr, ptr, ptr, ptr, ptr, [3 x ptr], i32, ptr, ptr, ptr, ptr, %struct.ScratchpadContext, i32, i32, i32, i32, i32, i32, %struct.BlockDSPContext, %struct.H264ChromaContext, %struct.HpelDSPContext, %struct.IDCTDSPContext, %struct.QpelDSPContext, %struct.VideoDSPContext, %struct.H263DSPContext, ptr, [2 x [2 x ptr]], i32, i32, [2 x [4 x [2 x i32]]], [2 x [2 x i32]], [2 x [2 x [2 x i32]]], [2 x [64 x i16]], i32, i32, i32, i32, i32, [6 x i32], [6 x i32], [3 x ptr], ptr, [64 x i16], [64 x i16], [64 x i16], [64 x i16], i32, i32, %struct.GetBitContext, i32, i32, i32, i32, i32, i32, i32, i32, i32, i32, i32, i32, i32, i32, i32, i64, i64, i16, i16, i16, i16, i32, i32, i32, i32, i32, i32, i32, i32, i32, [3 x i32], i32, i32, i32, i32, i32, i32, %struct.GetBitContext, i32, [2 x [2 x i32]], i32, i32, i32, i32, i32, i32, i32, i32, i32, i32, i32, i32, i32, i32, [2 x i32], i32, i32, ptr, ptr, ptr, ptr, ptr, i32, i32, %struct.ERContext }
%struct.ScanTable = type { ptr, [64 x i8], [64 x i8] }
%struct.BufferPoolContext = type { ptr, ptr, ptr, ptr, ptr, i32, i32, i32 }
%union.anon = type { [32 x ptr] }
%struct.MPVWorkPicture = type { [3 x ptr], [3 x i64], ptr, ptr, [2 x ptr], ptr, ptr, [2 x ptr], i32 }
%struct.ScratchpadContext = type { ptr, ptr, %union.anon.0, i32 }
%union.anon.0 = type { ptr }
%struct.BlockDSPContext = type { ptr, ptr, [2 x ptr] }
%struct.H264ChromaContext = type { [4 x ptr], [4 x ptr] }
%struct.HpelDSPContext = type { [4 x [4 x ptr]], [4 x [4 x ptr]], [4 x [4 x ptr]], [4 x ptr] }
%struct.IDCTDSPContext = type { ptr, ptr, ptr, ptr, ptr, ptr, [64 x i8], i32, i32 }
%struct.QpelDSPContext = type { [2 x [16 x ptr]], [2 x [16 x ptr]], [2 x [16 x ptr]] }
%struct.VideoDSPContext = type { ptr, ptr }
%struct.H263DSPContext = type { ptr, ptr }
%struct.GetBitContext = type { ptr, ptr, i32, i32, i32 }
%struct.ERContext = type { ptr, ptr, i32, ptr, i32, i32, i32, i64, i64, i32, i32, ptr, ptr, [3 x ptr], ptr, ptr, [2 x [4 x [2 x i32]]], %struct.ERPicture, %struct.ERPicture, %struct.ERPicture, [2 x ptr], [2 x ptr], i16, i16, i32, i32, ptr, ptr }
%struct.ERPicture = type { ptr, ptr, ptr, [2 x ptr], [2 x ptr], ptr, i32 }

@.str = private unnamed_addr constant [8 x i8] c"I7:%X/\0A\00", align 1

; Function Attrs: alwaysinline nounwind willreturn memory(none) uwtable
define internal i32 @av_bswap32(i32 noundef %0) #8 {
  %2 = alloca i32, align 4
  store i32 %0, ptr %2, align 4, !tbaa !58
  %3 = load i32, ptr %2, align 4, !tbaa !58
  %4 = shl i32 %3, 8
  %5 = and i32 %4, 65280
  %6 = load i32, ptr %2, align 4, !tbaa !58
  %7 = lshr i32 %6, 8
  %8 = and i32 %7, 255
  %9 = or i32 %5, %8
  %10 = shl i32 %9, 16
  %11 = load i32, ptr %2, align 4, !tbaa !58
  %12 = lshr i32 %11, 16
  %13 = shl i32 %12, 8
  %14 = and i32 %13, 65280
  %15 = load i32, ptr %2, align 4, !tbaa !58
  %16 = lshr i32 %15, 16
  %17 = lshr i32 %16, 8
  %18 = and i32 %17, 255
  %19 = or i32 %14, %18
  %20 = or i32 %10, %19
  ret i32 %20
}

; Function Attrs: inlinehint nounwind uwtable
define internal i32 @show_bits(ptr noundef %0, i32 noundef %1) #2 {
  %3 = alloca ptr, align 8
  %4 = alloca i32, align 4
  %5 = alloca i32, align 4
  %6 = alloca i32, align 4
  %7 = alloca i32, align 4
  store ptr %0, ptr %3, align 8, !tbaa !77
  store i32 %1, ptr %4, align 4, !tbaa !58
  call void @llvm.lifetime.start.p0(i64 4, ptr %5) #10
  call void @llvm.lifetime.start.p0(i64 4, ptr %6) #10
  %8 = load ptr, ptr %3, align 8, !tbaa !77
  %9 = getelementptr inbounds nuw %struct.GetBitContext, ptr %8, i32 0, i32 2
  %10 = load i32, ptr %9, align 8, !tbaa !78
  store i32 %10, ptr %6, align 4, !tbaa !58
  call void @llvm.lifetime.start.p0(i64 4, ptr %7) #10
  %11 = load ptr, ptr %3, align 8, !tbaa !77
  %12 = getelementptr inbounds nuw %struct.GetBitContext, ptr %11, i32 0, i32 0
  %13 = load ptr, ptr %12, align 8, !tbaa !79
  %14 = load i32, ptr %6, align 4, !tbaa !58
  %15 = lshr i32 %14, 3
  %16 = zext i32 %15 to i64
  %17 = getelementptr inbounds nuw i8, ptr %13, i64 %16
  %18 = load i32, ptr %17, align 1, !tbaa !80
  %19 = call i32 @av_bswap32(i32 noundef %18) #11
  %20 = load i32, ptr %6, align 4, !tbaa !58
  %21 = and i32 %20, 7
  %22 = shl i32 %19, %21
  %23 = lshr i32 %22, 0
  store i32 %23, ptr %7, align 4, !tbaa !58
  %24 = load i32, ptr %7, align 4, !tbaa !58
  %25 = load i32, ptr %4, align 4, !tbaa !58
  %26 = sub nsw i32 32, %25
  %27 = lshr i32 %24, %26
  store i32 %27, ptr %5, align 4, !tbaa !58
  %28 = load i32, ptr %5, align 4, !tbaa !58
  call void @llvm.lifetime.end.p0(i64 4, ptr %7) #10
  call void @llvm.lifetime.end.p0(i64 4, ptr %6) #10
  call void @llvm.lifetime.end.p0(i64 4, ptr %5) #10
  ret i32 %28
}

; Function Attrs: inlinehint nounwind uwtable
define internal i32 @get_bits(ptr noundef %0, i32 noundef %1) #2 {
  %3 = alloca ptr, align 8
  %4 = alloca i32, align 4
  %5 = alloca i32, align 4
  %6 = alloca i32, align 4
  %7 = alloca i32, align 4
  %8 = alloca i32, align 4
  store ptr %0, ptr %3, align 8, !tbaa !77
  store i32 %1, ptr %4, align 4, !tbaa !58
  call void @llvm.lifetime.start.p0(i64 4, ptr %5) #10
  call void @llvm.lifetime.start.p0(i64 4, ptr %6) #10
  %9 = load ptr, ptr %3, align 8, !tbaa !77
  %10 = getelementptr inbounds nuw %struct.GetBitContext, ptr %9, i32 0, i32 2
  %11 = load i32, ptr %10, align 8, !tbaa !78
  store i32 %11, ptr %6, align 4, !tbaa !58
  call void @llvm.lifetime.start.p0(i64 4, ptr %7) #10
  call void @llvm.lifetime.start.p0(i64 4, ptr %8) #10
  %12 = load ptr, ptr %3, align 8, !tbaa !77
  %13 = getelementptr inbounds nuw %struct.GetBitContext, ptr %12, i32 0, i32 4
  %14 = load i32, ptr %13, align 8, !tbaa !81
  store i32 %14, ptr %8, align 4, !tbaa !58
  %15 = load ptr, ptr %3, align 8, !tbaa !77
  %16 = getelementptr inbounds nuw %struct.GetBitContext, ptr %15, i32 0, i32 0
  %17 = load ptr, ptr %16, align 8, !tbaa !79
  %18 = load i32, ptr %6, align 4, !tbaa !58
  %19 = lshr i32 %18, 3
  %20 = zext i32 %19 to i64
  %21 = getelementptr inbounds nuw i8, ptr %17, i64 %20
  %22 = load i32, ptr %21, align 1, !tbaa !80
  %23 = call i32 @av_bswap32(i32 noundef %22) #11
  %24 = load i32, ptr %6, align 4, !tbaa !58
  %25 = and i32 %24, 7
  %26 = shl i32 %23, %25
  %27 = lshr i32 %26, 0
  store i32 %27, ptr %7, align 4, !tbaa !58
  %28 = load i32, ptr %7, align 4, !tbaa !58
  %29 = load i32, ptr %4, align 4, !tbaa !58
  %30 = sub nsw i32 32, %29
  %31 = lshr i32 %28, %30
  store i32 %31, ptr %5, align 4, !tbaa !58
  %32 = load i32, ptr %8, align 4, !tbaa !58
  %33 = load i32, ptr %6, align 4, !tbaa !58
  %34 = load i32, ptr %4, align 4, !tbaa !58
  %35 = add i32 %33, %34
  %36 = icmp ugt i32 %32, %35
  br i1 %36, label %37, label %41

37:                                               ; preds = %2
  %38 = load i32, ptr %6, align 4, !tbaa !58
  %39 = load i32, ptr %4, align 4, !tbaa !58
  %40 = add i32 %38, %39
  br label %43

41:                                               ; preds = %2
  %42 = load i32, ptr %8, align 4, !tbaa !58
  br label %43

43:                                               ; preds = %41, %37
  %44 = phi i32 [ %40, %37 ], [ %42, %41 ]
  store i32 %44, ptr %6, align 4, !tbaa !58
  %45 = load i32, ptr %6, align 4, !tbaa !58
  %46 = load ptr, ptr %3, align 8, !tbaa !77
  %47 = getelementptr inbounds nuw %struct.GetBitContext, ptr %46, i32 0, i32 2
  store i32 %45, ptr %47, align 8, !tbaa !78
  %48 = load i32, ptr %5, align 4, !tbaa !58
  call void @llvm.lifetime.end.p0(i64 4, ptr %8) #10
  call void @llvm.lifetime.end.p0(i64 4, ptr %7) #10
  call void @llvm.lifetime.end.p0(i64 4, ptr %6) #10
  call void @llvm.lifetime.end.p0(i64 4, ptr %5) #10
  ret i32 %48
}

; Function Attrs: inlinehint nounwind uwtable
define internal i32 @get_bits1(ptr noundef %0) #2 {
  %2 = alloca ptr, align 8
  %3 = alloca i32, align 4
  %4 = alloca i8, align 1
  store ptr %0, ptr %2, align 8, !tbaa !77
  call void @llvm.lifetime.start.p0(i64 4, ptr %3) #10
  %5 = load ptr, ptr %2, align 8, !tbaa !77
  %6 = getelementptr inbounds nuw %struct.GetBitContext, ptr %5, i32 0, i32 2
  %7 = load i32, ptr %6, align 8, !tbaa !78
  store i32 %7, ptr %3, align 4, !tbaa !58
  call void @llvm.lifetime.start.p0(i64 1, ptr %4) #10
  %8 = load ptr, ptr %2, align 8, !tbaa !77
  %9 = getelementptr inbounds nuw %struct.GetBitContext, ptr %8, i32 0, i32 0
  %10 = load ptr, ptr %9, align 8, !tbaa !79
  %11 = load i32, ptr %3, align 4, !tbaa !58
  %12 = lshr i32 %11, 3
  %13 = zext i32 %12 to i64
  %14 = getelementptr inbounds nuw i8, ptr %10, i64 %13
  %15 = load i8, ptr %14, align 1, !tbaa !80
  store i8 %15, ptr %4, align 1, !tbaa !80
  %16 = load i32, ptr %3, align 4, !tbaa !58
  %17 = and i32 %16, 7
  %18 = load i8, ptr %4, align 1, !tbaa !80
  %19 = zext i8 %18 to i32
  %20 = shl i32 %19, %17
  %21 = trunc i32 %20 to i8
  store i8 %21, ptr %4, align 1, !tbaa !80
  %22 = load i8, ptr %4, align 1, !tbaa !80
  %23 = zext i8 %22 to i32
  %24 = ashr i32 %23, 7
  %25 = trunc i32 %24 to i8
  store i8 %25, ptr %4, align 1, !tbaa !80
  %26 = load ptr, ptr %2, align 8, !tbaa !77
  %27 = getelementptr inbounds nuw %struct.GetBitContext, ptr %26, i32 0, i32 2
  %28 = load i32, ptr %27, align 8, !tbaa !78
  %29 = load ptr, ptr %2, align 8, !tbaa !77
  %30 = getelementptr inbounds nuw %struct.GetBitContext, ptr %29, i32 0, i32 4
  %31 = load i32, ptr %30, align 8, !tbaa !81
  %32 = icmp slt i32 %28, %31
  br i1 %32, label %33, label %36

33:                                               ; preds = %1
  %34 = load i32, ptr %3, align 4, !tbaa !58
  %35 = add i32 %34, 1
  store i32 %35, ptr %3, align 4, !tbaa !58
  br label %36

36:                                               ; preds = %33, %1
  %37 = load i32, ptr %3, align 4, !tbaa !58
  %38 = load ptr, ptr %2, align 8, !tbaa !77
  %39 = getelementptr inbounds nuw %struct.GetBitContext, ptr %38, i32 0, i32 2
  store i32 %37, ptr %39, align 8, !tbaa !78
  %40 = load i8, ptr %4, align 1, !tbaa !80
  %41 = zext i8 %40 to i32
  call void @llvm.lifetime.end.p0(i64 1, ptr %4) #10
  call void @llvm.lifetime.end.p0(i64 4, ptr %3) #10
  ret i32 %41
}

; Function Attrs: nounwind uwtable
define i32 @ff_wmv2_decode_picture_header(ptr noundef %0) #0 {
  %2 = alloca i32, align 4
  %3 = alloca ptr, align 8
  %4 = alloca i32, align 4
  %5 = alloca i32, align 4
  %6 = alloca %struct.GetBitContext, align 8
  %7 = alloca i32, align 4
  %8 = alloca i32, align 4
  %9 = alloca i32, align 4
  store ptr %0, ptr %3, align 8, !tbaa !4
  call void @llvm.lifetime.start.p0(i64 4, ptr %4) #10
  %10 = load ptr, ptr %3, align 8, !tbaa !4
  %11 = getelementptr inbounds nuw %struct.MpegEncContext, ptr %10, i32 0, i32 134
  %12 = call i32 @get_bits1(ptr noundef %11)
  %13 = add i32 %12, 1
  %14 = load ptr, ptr %3, align 8, !tbaa !4
  %15 = getelementptr inbounds nuw %struct.MpegEncContext, ptr %14, i32 0, i32 62
  store i32 %13, ptr %15, align 8, !tbaa !69
  %16 = load ptr, ptr %3, align 8, !tbaa !4
  %17 = getelementptr inbounds nuw %struct.MpegEncContext, ptr %16, i32 0, i32 62
  %18 = load i32, ptr %17, align 8, !tbaa !69
  %19 = icmp eq i32 %18, 1
  br i1 %19, label %20, label %28

20:                                               ; preds = %1
  %21 = load ptr, ptr %3, align 8, !tbaa !4
  %22 = getelementptr inbounds nuw %struct.MpegEncContext, ptr %21, i32 0, i32 134
  %23 = call i32 @get_bits(ptr noundef %22, i32 noundef 7)
  store i32 %23, ptr %4, align 4, !tbaa !58
  %24 = load ptr, ptr %3, align 8, !tbaa !4
  %25 = getelementptr inbounds nuw %struct.MpegEncContext, ptr %24, i32 0, i32 10
  %26 = load ptr, ptr %25, align 8, !tbaa !42
  %27 = load i32, ptr %4, align 4, !tbaa !58
  call void (ptr, i32, ptr, ...) @av_log(ptr noundef %26, i32 noundef 48, ptr noundef @.str, i32 noundef %27)
  br label %28

28:                                               ; preds = %20, %1
  %29 = load ptr, ptr %3, align 8, !tbaa !4
  %30 = getelementptr inbounds nuw %struct.MpegEncContext, ptr %29, i32 0, i32 134
  %31 = call i32 @get_bits(ptr noundef %30, i32 noundef 5)
  %32 = load ptr, ptr %3, align 8, !tbaa !4
  %33 = getelementptr inbounds nuw %struct.MpegEncContext, ptr %32, i32 0, i32 60
  store i32 %31, ptr %33, align 8, !tbaa !70
  %34 = load ptr, ptr %3, align 8, !tbaa !4
  %35 = getelementptr inbounds nuw %struct.MpegEncContext, ptr %34, i32 0, i32 61
  store i32 %31, ptr %35, align 4, !tbaa !71
  %36 = load ptr, ptr %3, align 8, !tbaa !4
  %37 = getelementptr inbounds nuw %struct.MpegEncContext, ptr %36, i32 0, i32 60
  %38 = load i32, ptr %37, align 8, !tbaa !70
  %39 = icmp sle i32 %38, 0
  br i1 %39, label %40, label %41

40:                                               ; preds = %28
  store i32 -1094995529, ptr %2, align 4
  store i32 1, ptr %5, align 4
  br label %101

41:                                               ; preds = %28
  %42 = load ptr, ptr %3, align 8, !tbaa !4
  %43 = getelementptr inbounds nuw %struct.MpegEncContext, ptr %42, i32 0, i32 62
  %44 = load i32, ptr %43, align 8, !tbaa !69
  %45 = icmp ne i32 %44, 1
  br i1 %45, label %46, label %100

46:                                               ; preds = %41
  %47 = load ptr, ptr %3, align 8, !tbaa !4
  %48 = getelementptr inbounds nuw %struct.MpegEncContext, ptr %47, i32 0, i32 134
  %49 = call i32 @show_bits(ptr noundef %48, i32 noundef 1)
  %50 = icmp ne i32 %49, 0
  br i1 %50, label %51, label %100

51:                                               ; preds = %46
  call void @llvm.lifetime.start.p0(i64 32, ptr %6) #10
  %52 = load ptr, ptr %3, align 8, !tbaa !4
  %53 = getelementptr inbounds nuw %struct.MpegEncContext, ptr %52, i32 0, i32 134
  call void @llvm.memcpy.p0.p0.i64(ptr align 8 %6, ptr align 8 %53, i64 32, i1 false), !tbaa.struct !72
  call void @llvm.lifetime.start.p0(i64 4, ptr %7) #10
  %54 = call i32 @get_bits(ptr noundef %6, i32 noundef 2)
  store i32 %54, ptr %7, align 4, !tbaa !58
  call void @llvm.lifetime.start.p0(i64 4, ptr %8) #10
  %55 = load i32, ptr %7, align 4, !tbaa !58
  %56 = icmp eq i32 %55, 3
  br i1 %56, label %57, label %61

57:                                               ; preds = %51
  %58 = load ptr, ptr %3, align 8, !tbaa !4
  %59 = getelementptr inbounds nuw %struct.MpegEncContext, ptr %58, i32 0, i32 25
  %60 = load i32, ptr %59, align 4, !tbaa !73
  br label %65

61:                                               ; preds = %51
  %62 = load ptr, ptr %3, align 8, !tbaa !4
  %63 = getelementptr inbounds nuw %struct.MpegEncContext, ptr %62, i32 0, i32 26
  %64 = load i32, ptr %63, align 8, !tbaa !74
  br label %65

65:                                               ; preds = %61, %57
  %66 = phi i32 [ %60, %57 ], [ %64, %61 ]
  store i32 %66, ptr %8, align 4, !tbaa !58
  br label %67

67:                                               ; preds = %91, %65
  %68 = load i32, ptr %8, align 4, !tbaa !58
  %69 = icmp sgt i32 %68, 0
  br i1 %69, label %70, label %92

70:                                               ; preds = %67
  call void @llvm.lifetime.start.p0(i64 4, ptr %9) #10
  %71 = load i32, ptr %8, align 4, !tbaa !58
  %72 = icmp sgt i32 %71, 25
  br i1 %72, label %73, label %74

73:                                               ; preds = %70
  br label %76

74:                                               ; preds = %70
  %75 = load i32, ptr %8, align 4, !tbaa !58
  br label %76

76:                                               ; preds = %74, %73
  %77 = phi i32 [ 25, %73 ], [ %75, %74 ]
  store i32 %77, ptr %9, align 4, !tbaa !58
  %78 = load i32, ptr %9, align 4, !tbaa !58
  %79 = call i32 @get_bits(ptr noundef %6, i32 noundef %78)
  %80 = add i32 %79, 1
  %81 = load i32, ptr %9, align 4, !tbaa !58
  %82 = shl i32 1, %81
  %83 = icmp ne i32 %80, %82
  br i1 %83, label %84, label %85

84:                                               ; preds = %76
  store i32 3, ptr %5, align 4
  br label %89

85:                                               ; preds = %76
  %86 = load i32, ptr %9, align 4, !tbaa !58
  %87 = load i32, ptr %8, align 4, !tbaa !58
  %88 = sub nsw i32 %87, %86
  store i32 %88, ptr %8, align 4, !tbaa !58
  store i32 0, ptr %5, align 4
  br label %89

89:                                               ; preds = %85, %84
  call void @llvm.lifetime.end.p0(i64 4, ptr %9) #10
  %90 = load i32, ptr %5, align 4
  switch i32 %90, label %103 [
    i32 0, label %91
    i32 3, label %92
  ]

91:                                               ; preds = %89
  br label %67, !llvm.loop !75

92:                                               ; preds = %89, %67
  %93 = load i32, ptr %8, align 4, !tbaa !58
  %94 = icmp ne i32 %93, 0
  br i1 %94, label %96, label %95

95:                                               ; preds = %92
  store i32 100, ptr %2, align 4
  store i32 1, ptr %5, align 4
  br label %97

96:                                               ; preds = %92
  store i32 0, ptr %5, align 4
  br label %97

97:                                               ; preds = %96, %95
  call void @llvm.lifetime.end.p0(i64 4, ptr %8) #10
  call void @llvm.lifetime.end.p0(i64 4, ptr %7) #10
  call void @llvm.lifetime.end.p0(i64 32, ptr %6) #10
  %98 = load i32, ptr %5, align 4
  switch i32 %98, label %101 [
    i32 0, label %99
  ]

99:                                               ; preds = %97
  br label %100

100:                                              ; preds = %99, %46, %41
  store i32 0, ptr %2, align 4
  store i32 1, ptr %5, align 4
  br label %101

101:                                              ; preds = %100, %97, %40
  call void @llvm.lifetime.end.p0(i64 4, ptr %4) #10
  %102 = load i32, ptr %2, align 4
  ret i32 %102

103:                                              ; preds = %89
  unreachable
}