; Function Attrs: nounwind uwtable
define range(i32 -1094995529, 101) i32 @ff_wmv2_decode_picture_header(ptr noundef captures(none) initializes((1472, 1484)) %0) local_unnamed_addr #0 {
  %2 = getelementptr inbounds nuw i8, ptr %0, i64 4160
  %3 = getelementptr inbounds nuw i8, ptr %0, i64 4176
  %4 = load i32, ptr %3, align 8, !tbaa !63
  %5 = load ptr, ptr %2, align 8, !tbaa !64
  %6 = lshr i32 %4, 3
  %7 = zext nneg i32 %6 to i64
  %8 = getelementptr inbounds nuw i8, ptr %5, i64 %7
  %9 = load i8, ptr %8, align 1, !tbaa !65
  %10 = getelementptr inbounds nuw i8, ptr %0, i64 4184
  %11 = load i32, ptr %10, align 8, !tbaa !66
  %12 = icmp slt i32 %4, %11
  %13 = zext i1 %12 to i32
  %spec.select.i = add i32 %4, %13
  %14 = zext i8 %9 to i32
  %15 = and i32 %4, 7
  %16 = shl nuw nsw i32 %14, %15
  %17 = lshr i32 %16, 7
  store i32 %spec.select.i, ptr %3, align 8, !tbaa !63
  %18 = and i32 %17, 1
  %19 = add nuw nsw i32 %18, 1
  %20 = getelementptr inbounds nuw i8, ptr %0, i64 1480
  store i32 %19, ptr %20, align 8, !tbaa !67
  %21 = icmp eq i32 %18, 0
  br i1 %21, label %22, label %35

22:                                               ; preds = %1
  %23 = lshr i32 %spec.select.i, 3
  %24 = zext nneg i32 %23 to i64
  %25 = getelementptr inbounds nuw i8, ptr %5, i64 %24
  %26 = load i32, ptr %25, align 1, !tbaa !65
  %27 = tail call i32 @llvm.bswap.i32(i32 %26)
  %28 = and i32 %spec.select.i, 7
  %29 = shl i32 %27, %28
  %30 = lshr i32 %29, 25
  %31 = add i32 %spec.select.i, 7
  %32 = tail call i32 @llvm.umin.i32(i32 %11, i32 %31)
  store i32 %32, ptr %3, align 8, !tbaa !63
  %33 = getelementptr inbounds nuw i8, ptr %0, i64 472
  %34 = load ptr, ptr %33, align 8, !tbaa !36
  tail call void (ptr, i32, ptr, ...) @av_log(ptr noundef %34, i32 noundef 48, ptr noundef nonnull @.str, i32 noundef %30) #7
  %.pre = load i32, ptr %3, align 8, !tbaa !63
  %.pre39 = load i32, ptr %10, align 8, !tbaa !66
  %.pre40 = load ptr, ptr %2, align 8, !tbaa !64
  br label %35

35:                                               ; preds = %22, %1
  %36 = phi ptr [ %.pre40, %22 ], [ %5, %1 ]
  %37 = phi i32 [ %.pre39, %22 ], [ %11, %1 ]
  %38 = phi i32 [ %.pre, %22 ], [ %spec.select.i, %1 ]
  %39 = lshr i32 %38, 3
  %40 = zext nneg i32 %39 to i64
  %41 = getelementptr inbounds nuw i8, ptr %36, i64 %40
  %42 = load i32, ptr %41, align 1, !tbaa !65
  %43 = tail call i32 @llvm.bswap.i32(i32 %42)
  %44 = and i32 %38, 7
  %45 = shl i32 %43, %44
  %46 = lshr i32 %45, 27
  %47 = add i32 %38, 5
  %48 = tail call i32 @llvm.umin.i32(i32 %37, i32 %47)
  store i32 %48, ptr %3, align 8, !tbaa !63
  %49 = getelementptr inbounds nuw i8, ptr %0, i64 1472
  store i32 %46, ptr %49, align 8, !tbaa !68
  %50 = getelementptr inbounds nuw i8, ptr %0, i64 1476
  store i32 %46, ptr %50, align 4, !tbaa !69
  %51 = icmp ult i32 %45, 134217728
  br i1 %51, label %86, label %52

52:                                               ; preds = %35
  %53 = load i32, ptr %20, align 8, !tbaa !67
  %.not = icmp eq i32 %53, 1
  br i1 %.not, label %.thread, label %54

54:                                               ; preds = %52
  %55 = lshr i32 %48, 3
  %56 = zext nneg i32 %55 to i64
  %57 = getelementptr inbounds nuw i8, ptr %36, i64 %56
  %58 = load i32, ptr %57, align 1, !tbaa !65
  %59 = tail call i32 @llvm.bswap.i32(i32 %58)
  %60 = and i32 %48, 7
  %61 = shl i32 %59, %60
  %.not30 = icmp sgt i32 %61, -1
  br i1 %.not30, label %.thread, label %62

62:                                               ; preds = %54
  %63 = add i32 %48, 2
  %64 = tail call i32 @llvm.umin.i32(i32 %37, i32 %63)
  %65 = icmp samesign ugt i32 %61, -1073741825
  %.in.v = select i1 %65, i64 540, i64 544
  %.in = getelementptr inbounds nuw i8, ptr %0, i64 %.in.v
  %66 = load i32, ptr %.in, align 4, !tbaa !52
  br label %67

67:                                               ; preds = %69, %62
  %.sroa.535.0 = phi i32 [ %64, %62 ], [ %81, %69 ]
  %.026 = phi i32 [ %66, %62 ], [ %84, %69 ]
  %68 = icmp sgt i32 %.026, 0
  br i1 %68, label %69, label %85

69:                                               ; preds = %67
  %70 = tail call i32 @llvm.umin.i32(i32 %.026, i32 25)
  %71 = lshr i32 %.sroa.535.0, 3
  %72 = zext nneg i32 %71 to i64
  %73 = getelementptr inbounds nuw i8, ptr %36, i64 %72
  %74 = load i32, ptr %73, align 1, !tbaa !65
  %75 = tail call i32 @llvm.bswap.i32(i32 %74)
  %76 = and i32 %.sroa.535.0, 7
  %77 = shl i32 %75, %76
  %78 = sub nuw nsw i32 32, %70
  %79 = lshr i32 %77, %78
  %80 = add i32 %70, %.sroa.535.0
  %81 = tail call i32 @llvm.umin.i32(i32 %37, i32 %80)
  %82 = add nuw nsw i32 %79, 1
  %83 = shl nuw nsw i32 1, %70
  %.not31 = icmp eq i32 %82, %83
  %84 = sub nsw i32 %.026, %70
  br i1 %.not31, label %67, label %.thread

85:                                               ; preds = %67
  %.not32.not = icmp eq i32 %.026, 0
  br i1 %.not32.not, label %86, label %.thread

.thread:                                          ; preds = %69, %85, %54, %52
  br label %86

86:                                               ; preds = %35, %85, %.thread
  %.0 = phi i32 [ 0, %.thread ], [ 100, %85 ], [ -1094995529, %35 ]
  ret i32 %.0
}